target datalayout = "e-m:e-p270:32:32-p271:32:32-p272:64:64-i64:64-i128:128-f80:128-n8:16:32:64-S128"
target triple = "x86_64-pc-linux-gnu"

%struct.png_compression_buffer = type { ptr, [1 x i8] }

; Function Attrs: nounwind uwtable
define void @png_free_buffer_list(ptr noalias noundef %0, ptr noundef %1) #0 {
  %3 = alloca ptr, align 8
  %4 = alloca ptr, align 8
  %5 = alloca ptr, align 8
  %6 = alloca ptr, align 8
  store ptr %0, ptr %3, align 8, !tbaa !11
  store ptr %1, ptr %4, align 8, !tbaa !32
  call void @llvm.lifetime.start.p0(i64 8, ptr %5) #7
  %7 = load ptr, ptr %4, align 8, !tbaa !32
  %8 = load ptr, ptr %7, align 8, !tbaa !34
  store ptr %8, ptr %5, align 8, !tbaa !34
  %9 = load ptr, ptr %5, align 8, !tbaa !34
  %10 = icmp ne ptr %9, null
  br i1 %10, label %11, label %24

11:                                               ; preds = %2
  %12 = load ptr, ptr %4, align 8, !tbaa !32
  store ptr null, ptr %12, align 8, !tbaa !34
  br label %13

13:                                               ; preds = %20, %11
  call void @llvm.lifetime.start.p0(i64 8, ptr %6) #7
  %14 = load ptr, ptr %5, align 8, !tbaa !34
  %15 = getelementptr inbounds nuw %struct.png_compression_buffer, ptr %14, i32 0, i32 0
  %16 = load ptr, ptr %15, align 8, !tbaa !35
  store ptr %16, ptr %6, align 8, !tbaa !34
  %17 = load ptr, ptr %3, align 8, !tbaa !11
  %18 = load ptr, ptr %5, align 8, !tbaa !34
  call void @png_free(ptr noundef %17, ptr noundef %18)
  %19 = load ptr, ptr %6, align 8, !tbaa !34
  store ptr %19, ptr %5, align 8, !tbaa !34
  call void @llvm.lifetime.end.p0(i64 8, ptr %6) #7
  br label %20

20:                                               ; preds = %13
  %21 = load ptr, ptr %5, align 8, !tbaa !34
  %22 = icmp ne ptr %21, null
  br i1 %22, label %13, label %23, !llvm.loop !37

23:                                               ; preds = %20
  br label %24

24:                                               ; preds = %23, %2
  call void @llvm.lifetime.end.p0(i64 8, ptr %5) #7
  ret void
}