; Function Attrs: nounwind uwtable
define void @png_free_buffer_list(ptr noalias noundef %0, ptr noundef captures(none) %1) local_unnamed_addr #1 {
  %3 = load ptr, ptr %1, align 8, !tbaa !36
  %.not = icmp eq ptr %3, null
  br i1 %.not, label %.loopexit, label %4

4:                                                ; preds = %2
  store ptr null, ptr %1, align 8, !tbaa !36
  br label %5

5:                                                ; preds = %5, %4
  %.0 = phi ptr [ %3, %4 ], [ %6, %5 ]
  %6 = load ptr, ptr %.0, align 8, !tbaa !37
  tail call void @png_free(ptr noundef %0, ptr noundef nonnull %.0) #12
  %.not9 = icmp eq ptr %6, null
  br i1 %.not9, label %.loopexit, label %5, !llvm.loop !39

.loopexit:                                        ; preds = %5, %2
  ret void
}